target datalayout = "e-m:e-p270:32:32-p271:32:32-p272:64:64-i64:64-i128:128-f80:128-n8:16:32:64-S128"
target triple = "x86_64-pc-linux-gnu"

%struct._zend_refcounted_h = type { i32, %union.anon }
%union.anon = type { i32 }
%struct._zend_string = type { %struct._zend_refcounted_h, i64, i64, [1 x i8] }

; Function Attrs: nounwind uwtable
define zeroext i1 @zend_string_equal_val(ptr noundef %0, ptr noundef %1) #0 {
  %3 = alloca ptr, align 8
  %4 = alloca ptr, align 8
  %5 = alloca ptr, align 8
  %6 = alloca i64, align 8
  %7 = alloca i64, align 8
  %8 = alloca i64, align 8
  store ptr %0, ptr %3, align 8
  store ptr %1, ptr %4, align 8
  %9 = load ptr, ptr %3, align 8
  %10 = getelementptr inbounds %struct._zend_string, ptr %9, i32 0, i32 3
  %11 = getelementptr inbounds [1 x i8], ptr %10, i64 0, i64 0
  store ptr %11, ptr %5, align 8
  %12 = load ptr, ptr %4, align 8
  %13 = load ptr, ptr %3, align 8
  %14 = ptrtoint ptr %12 to i64
  %15 = ptrtoint ptr %13 to i64
  %16 = sub i64 %14, %15
  store i64 %16, ptr %6, align 8
  %17 = load ptr, ptr %3, align 8
  %18 = getelementptr inbounds %struct._zend_string, ptr %17, i32 0, i32 2
  %19 = load i64, ptr %18, align 8
  store i64 %19, ptr %7, align 8
  %20 = load i64, ptr %7, align 8
  %21 = load ptr, ptr %5, align 8
  %22 = load i64, ptr %6, align 8
  %23 = call { i64, i64, ptr } asm ".LL0${:uid}:\0A\09movq ($2,$3), $0\0A\09xorq ($2), $0\0A\09jne .LL1${:uid}\0A\09addq $$0x8, $2\0A\09subq $$0x8, $1\0A\09ja .LL0${:uid}\0A\09movq $$0x1, $0\0A\09jmp .LL3${:uid}\0A\09.LL1${:uid}:\0A\09cmpq $$0x8,$1\0A\09jb .LL2${:uid}\0A\09xorq $0, $0\0A\09jmp .LL3${:uid}\0A\09.LL2${:uid}:\0A\09negq $1\0A\09lea 0x40(,$1,8), $1\0A\09shlq ${1:b}, $0\0A\09sete ${0:b}\0A\09movzbq ${0:b}, $0\0A\09.LL3${:uid}:\0A", "=&{ax},={cx},=r,r,1,2,~{cc},~{dirflag},~{fpsr},~{flags}"(i64 %22, i64 %20, ptr %21) #12, !srcloc !4
  %24 = extractvalue { i64, i64, ptr } %23, 0
  %25 = extractvalue { i64, i64, ptr } %23, 1
  %26 = extractvalue { i64, i64, ptr } %23, 2
  store i64 %24, ptr %8, align 8
  store i64 %25, ptr %7, align 8
  store ptr %26, ptr %5, align 8
  %27 = load i64, ptr %8, align 8
  %28 = icmp ne i64 %27, 0
  ret i1 %28
}