; Function Attrs: nofree nounwind memory(argmem: read) uwtable
define zeroext i1 @zend_string_equal_val(ptr noundef %0, ptr noundef %1) local_unnamed_addr #11 {
  %3 = getelementptr inbounds i8, ptr %0, i64 24
  %4 = ptrtoint ptr %1 to i64
  %5 = ptrtoint ptr %0 to i64
  %6 = sub i64 %4, %5
  %7 = getelementptr inbounds i8, ptr %0, i64 16
  %8 = load i64, ptr %7, align 8
  %9 = tail call { i64, i64, ptr } asm ".LL0${:uid}:\0A\09movq ($2,$3), $0\0A\09xorq ($2), $0\0A\09jne .LL1${:uid}\0A\09addq $$0x8, $2\0A\09subq $$0x8, $1\0A\09ja .LL0${:uid}\0A\09movq $$0x1, $0\0A\09jmp .LL3${:uid}\0A\09.LL1${:uid}:\0A\09cmpq $$0x8,$1\0A\09jb .LL2${:uid}\0A\09xorq $0, $0\0A\09jmp .LL3${:uid}\0A\09.LL2${:uid}:\0A\09negq $1\0A\09lea 0x40(,$1,8), $1\0A\09shlq ${1:b}, $0\0A\09sete ${0:b}\0A\09movzbq ${0:b}, $0\0A\09.LL3${:uid}:\0A", "=&{ax},={cx},=r,r,1,2,~{cc},~{dirflag},~{fpsr},~{flags}"(i64 %6, i64 %8, ptr nonnull %3) #19, !srcloc !5
  %10 = extractvalue { i64, i64, ptr } %9, 0
  %11 = icmp ne i64 %10, 0
  ret i1 %11
}